; Function Attrs: nounwind uwtable
define void @jpeg_write_m_header(ptr noundef %0, i32 noundef %1, i32 noundef %2) local_unnamed_addr #0 {
  %4 = getelementptr inbounds nuw i8, ptr %0, i64 304
  %5 = load i32, ptr %4, align 8, !tbaa !49
  %.not = icmp eq i32 %5, 0
  %6 = getelementptr inbounds nuw i8, ptr %0, i64 36
  %7 = load i32, ptr %6, align 4, !tbaa !37
  %.off = add i32 %7, -101
  %switch = icmp ult i32 %.off, 3
  %or.cond = select i1 %.not, i1 %switch, i1 false
  br i1 %or.cond, label %13, label %._crit_edge

._crit_edge:                                      ; preds = %3
  %8 = load ptr, ptr %0, align 8, !tbaa !24
  %9 = getelementptr inbounds nuw i8, ptr %8, i64 40
  store i32 20, ptr %9, align 8, !tbaa !25
  %10 = getelementptr inbounds nuw i8, ptr %8, i64 44
  store i32 %7, ptr %10, align 4, !tbaa !29
  %11 = load ptr, ptr %0, align 8, !tbaa !24
  %12 = load ptr, ptr %11, align 8, !tbaa !30
  tail call void %12(ptr noundef nonnull %0) #4
  br label %13

13:                                               ; preds = %3, %._crit_edge
  %14 = getelementptr inbounds nuw i8, ptr %0, i64 464
  %15 = load ptr, ptr %14, align 8, !tbaa !67
  %16 = getelementptr inbounds nuw i8, ptr %15, i64 40
  %17 = load ptr, ptr %16, align 8, !tbaa !73
  tail call void %17(ptr noundef nonnull %0, i32 noundef %1, i32 noundef %2) #4
  ret void
}